; Function Attrs: mustprogress uwtable
define hidden void @_ZN4cvc58internal4prop13CadicalSolver16setResourceLimitEPNS0_15ResourceManagerE(ptr nocapture noundef nonnull align 8 dereferenceable(144) %this, ptr noundef %resmgr) local_unnamed_addr #3 align 2 personality ptr @__gxx_personality_v0 {
entry:
  %d_terminator = getelementptr inbounds i8, ptr %this, i64 32
  %call = tail call noalias noundef nonnull dereferenceable(16) ptr @_Znwm(i64 noundef 16) #26
  store ptr getelementptr inbounds ({ [5 x ptr] }, ptr @_ZTVN4cvc58internal4prop23ResourceLimitTerminatorE, i64 0, i32 0, i64 2), ptr %call, align 8
  %d_resmgr.i = getelementptr inbounds i8, ptr %call, i64 8
  store ptr %resmgr, ptr %d_resmgr.i, align 8
  %0 = load ptr, ptr %d_terminator, align 8
  store ptr %call, ptr %d_terminator, align 8
  %tobool.not.i.i = icmp eq ptr %0, null
  br i1 %tobool.not.i.i, label %_ZNSt10unique_ptrIN7CaDiCaL10TerminatorESt14default_deleteIS1_EE5resetEPS1_.exit, label %_ZNKSt14default_deleteIN7CaDiCaL10TerminatorEEclEPS1_.exit.i.i

_ZNKSt14default_deleteIN7CaDiCaL10TerminatorEEclEPS1_.exit.i.i: ; preds = %entry
  %vtable.i.i.i = load ptr, ptr %0, align 8
  %vfn.i.i.i = getelementptr inbounds i8, ptr %vtable.i.i.i, i64 8
  %1 = load ptr, ptr %vfn.i.i.i, align 8
  tail call void %1(ptr noundef nonnull align 8 dereferenceable(8) %0) #28
  %.pre = load ptr, ptr %d_terminator, align 8
  br label %_ZNSt10unique_ptrIN7CaDiCaL10TerminatorESt14default_deleteIS1_EE5resetEPS1_.exit

_ZNSt10unique_ptrIN7CaDiCaL10TerminatorESt14default_deleteIS1_EE5resetEPS1_.exit: ; preds = %entry, %_ZNKSt14default_deleteIN7CaDiCaL10TerminatorEEclEPS1_.exit.i.i
  %2 = phi ptr [ %call, %entry ], [ %.pre, %_ZNKSt14default_deleteIN7CaDiCaL10TerminatorEEclEPS1_.exit.i.i ]
  %d_solver = getelementptr inbounds i8, ptr %this, i64 24
  %3 = load ptr, ptr %d_solver, align 8
  tail call void @_ZN7CaDiCaL6Solver18connect_terminatorEPNS_10TerminatorE(ptr noundef nonnull align 8 dereferenceable(40) %3, ptr noundef %2)
  ret void
}